
test.elf:     file format elf32-avr

Sections:
Idx Name          Size      VMA       LMA       File off  Algn
  0 .text         00000cd8  00000000  00000000  00000094  2**1
                  CONTENTS, ALLOC, LOAD, READONLY, CODE
  1 .data         000000c0  00800060  00000cd8  00000d6c  2**0
                  CONTENTS, ALLOC, LOAD, DATA
  2 .bss          000000a7  00800120  00800120  00000e2c  2**0
                  ALLOC

Disassembly of section .text:

00000000 <__vectors>:
   0:	0c 94 aa 00 	jmp	0x154	; 0x154 <__ctors_end>
   4:	0c 94 0c 02 	jmp	0x418	; 0x418 <__vector_1>
   8:	0c 94 c7 00 	jmp	0x18e	; 0x18e <__bad_interrupt>
   c:	0c 94 c7 00 	jmp	0x18e	; 0x18e <__bad_interrupt>
  10:	0c 94 c7 00 	jmp	0x18e	; 0x18e <__bad_interrupt>
  14:	0c 94 c7 00 	jmp	0x18e	; 0x18e <__bad_interrupt>
  18:	0c 94 c7 00 	jmp	0x18e	; 0x18e <__bad_interrupt>
  1c:	0c 94 c7 00 	jmp	0x18e	; 0x18e <__bad_interrupt>
  20:	0c 94 c7 00 	jmp	0x18e	; 0x18e <__bad_interrupt>
  24:	0c 94 c7 00 	jmp	0x18e	; 0x18e <__bad_interrupt>
  28:	0c 94 c7 00 	jmp	0x18e	; 0x18e <__bad_interrupt>
  2c:	0c 94 b3 05 	jmp	0xb66	; 0xb66 <__vector_11>
  30:	0c 94 c7 00 	jmp	0x18e	; 0x18e <__bad_interrupt>
  34:	0c 94 c7 00 	jmp	0x18e	; 0x18e <__bad_interrupt>
  38:	0c 94 c7 00 	jmp	0x18e	; 0x18e <__bad_interrupt>
  3c:	0c 94 c7 00 	jmp	0x18e	; 0x18e <__bad_interrupt>
  40:	0c 94 c7 00 	jmp	0x18e	; 0x18e <__bad_interrupt>
  44:	0c 94 c7 00 	jmp	0x18e	; 0x18e <__bad_interrupt>
  48:	0c 94 c7 00 	jmp	0x18e	; 0x18e <__bad_interrupt>
  4c:	0c 94 c7 00 	jmp	0x18e	; 0x18e <__bad_interrupt>
  50:	0c 94 c7 00 	jmp	0x18e	; 0x18e <__bad_interrupt>

00000054 <scancodes>:
  54:	00 00 00 00 00 c8 00 00 00 00 00 00 00 00 5e 00     ..............^.
  64:	00 00 00 00 00 71 31 00 00 00 7a 73 61 77 32 00     .....q1...zsaw2.
  74:	00 63 78 64 65 34 33 00 00 20 76 66 74 72 35 00     .cxde43.. vftr5.
  84:	00 6e 62 68 67 79 36 07 08 2c 6d 6a 75 37 38 00     .nbhgy6..,mju78.
  94:	00 2c 6b 69 6f 30 39 00 00 2e 2f 6c 3b 70 2d 00     .,kio09.../l;p-.
  a4:	00 00 60 00 5b 3d 00 00 00 00 0d 5d 00 5c 00 00     ..`.[=.....].\..
  b4:	3c 00 00 00 00 08 00 00 31 00 34 37 00 00 00 30     <.......1.47...0
  c4:	2c 32 35 36 38 00 00 00 2b 33 2d 2a 39 00 00 00     ,2568...+3-*9...
  d4:	00 00 00 00 00 c8 00 00 00 00 00 00 00 00 5e 00     ..............^.
  e4:	00 00 00 00 00 51 21 00 00 00 5a 53 41 57 40 00     .....Q!...ZSAW@.
  f4:	00 43 58 44 45 24 23 00 00 20 56 46 54 52 25 00     .CXDE$#.. VFTR%.
 104:	00 4e 42 48 47 59 5e 07 08 2c 4d 4a 55 26 2a 00     .NBHGY^..,MJU&*.
 114:	00 3c 4b 49 4f 29 28 00 00 3e 3f 4c 3a 50 2d 00     .<KIO)(..>?L:P-.
 124:	00 00 22 00 7b 3d 00 00 00 00 0d 7d 00 7c 00 00     ..".{=.....}.|..
 134:	00 3c 00 00 00 00 08 00 00 31 00 34 37 00 00 00     .<.......1.47...
 144:	30 2c 32 35 36 38 00 00 00 2b 33 2d 2a 39 00 00     0,2568...+3-*9..

00000154 <__ctors_end>:
 154:	11 24       	eor	r1, r1
 156:	1f be       	out	0x3f, r1	; 63
 158:	cf e5       	ldi	r28, 0x5F	; 95
 15a:	d4 e0       	ldi	r29, 0x04	; 4
 15c:	de bf       	out	0x3e, r29	; 62
 15e:	cd bf       	out	0x3d, r28	; 61

00000160 <__do_copy_data>:
 160:	11 e0       	ldi	r17, 0x01	; 1
 162:	a0 e6       	ldi	r26, 0x60	; 96
 164:	b0 e0       	ldi	r27, 0x00	; 0
 166:	e8 ed       	ldi	r30, 0xD8	; 216
 168:	fc e0       	ldi	r31, 0x0C	; 12
 16a:	02 c0       	rjmp	.+4      	; 0x170 <.do_copy_data_start>

0000016c <.do_copy_data_loop>:
 16c:	05 90       	lpm	r0, Z+
 16e:	0d 92       	st	X+, r0

00000170 <.do_copy_data_start>:
 170:	a0 32       	cpi	r26, 0x20	; 32
 172:	b1 07       	cpc	r27, r17
 174:	d9 f7       	brne	.-10     	; 0x16c <.do_copy_data_loop>

00000176 <__do_clear_bss>:
 176:	11 e0       	ldi	r17, 0x01	; 1
 178:	a0 e2       	ldi	r26, 0x20	; 32
 17a:	b1 e0       	ldi	r27, 0x01	; 1
 17c:	01 c0       	rjmp	.+2      	; 0x180 <.do_clear_bss_start>

0000017e <.do_clear_bss_loop>:
 17e:	1d 92       	st	X+, r1

00000180 <.do_clear_bss_start>:
 180:	a7 3c       	cpi	r26, 0xC7	; 199
 182:	b1 07       	cpc	r27, r17
 184:	e1 f7       	brne	.-8      	; 0x17e <.do_clear_bss_loop>
 186:	0e 94 cf 04 	call	0x99e	; 0x99e <main>
 18a:	0c 94 c9 00 	jmp	0x192	; 0x192 <exit>

0000018e <__bad_interrupt>:
 18e:	0c 94 00 00 	jmp	0	; 0x0 <__vectors>

00000192 <exit>:
 192:	f8 94       	cli
 194:	0c 94 6a 06 	jmp	0xcd4	; 0xcd4 <_exit>

00000198 <_LCD_OutNibble>:
 198:	80 ff       	sbrs	r24, 0
 19a:	02 c0       	rjmp	.+4      	; 0x1a0 <_LCD_OutNibble+0x8>
 19c:	dc 9a       	sbi	0x1b, 4	; 27
 19e:	01 c0       	rjmp	.+2      	; 0x1a2 <_LCD_OutNibble+0xa>
 1a0:	dc 98       	cbi	0x1b, 4	; 27
 1a2:	81 ff       	sbrs	r24, 1
 1a4:	02 c0       	rjmp	.+4      	; 0x1aa <_LCD_OutNibble+0x12>
 1a6:	db 9a       	sbi	0x1b, 3	; 27
 1a8:	01 c0       	rjmp	.+2      	; 0x1ac <_LCD_OutNibble+0x14>
 1aa:	db 98       	cbi	0x1b, 3	; 27
 1ac:	82 ff       	sbrs	r24, 2
 1ae:	02 c0       	rjmp	.+4      	; 0x1b4 <_LCD_OutNibble+0x1c>
 1b0:	da 9a       	sbi	0x1b, 2	; 27
 1b2:	01 c0       	rjmp	.+2      	; 0x1b6 <_LCD_OutNibble+0x1e>
 1b4:	da 98       	cbi	0x1b, 2	; 27
 1b6:	83 ff       	sbrs	r24, 3
 1b8:	02 c0       	rjmp	.+4      	; 0x1be <_LCD_OutNibble+0x26>
 1ba:	d9 9a       	sbi	0x1b, 1	; 27
 1bc:	08 95       	ret
 1be:	d9 98       	cbi	0x1b, 1	; 27
 1c0:	08 95       	ret

000001c2 <_LCD_InNibble>:
 1c2:	89 b3       	in	r24, 0x19	; 25
 1c4:	90 e0       	ldi	r25, 0x00	; 0
 1c6:	24 e0       	ldi	r18, 0x04	; 4
 1c8:	96 95       	lsr	r25
 1ca:	87 95       	ror	r24
 1cc:	2a 95       	dec	r18
 1ce:	e1 f7       	brne	.-8      	; 0x1c8 <_LCD_InNibble+0x6>
 1d0:	81 70       	andi	r24, 0x01	; 1
 1d2:	cb 99       	sbic	0x19, 3	; 25
 1d4:	82 60       	ori	r24, 0x02	; 2
 1d6:	ca 99       	sbic	0x19, 2	; 25
 1d8:	84 60       	ori	r24, 0x04	; 4
 1da:	c9 99       	sbic	0x19, 1	; 25
 1dc:	88 60       	ori	r24, 0x08	; 8
 1de:	08 95       	ret

000001e0 <_LCD_Read>:
 1e0:	1f 93       	push	r17
 1e2:	d4 98       	cbi	0x1a, 4	; 26
 1e4:	d3 98       	cbi	0x1a, 3	; 26
 1e6:	d2 98       	cbi	0x1a, 2	; 26
 1e8:	d1 98       	cbi	0x1a, 1	; 26
 1ea:	a8 9a       	sbi	0x15, 0	; 21
 1ec:	a9 9a       	sbi	0x15, 1	; 21
 1ee:	0e 94 e1 00 	call	0x1c2	; 0x1c2 <_LCD_InNibble>
 1f2:	18 2f       	mov	r17, r24
 1f4:	12 95       	swap	r17
 1f6:	10 7f       	andi	r17, 0xF0	; 240
 1f8:	a9 98       	cbi	0x15, 1	; 21
 1fa:	a9 9a       	sbi	0x15, 1	; 21
 1fc:	0e 94 e1 00 	call	0x1c2	; 0x1c2 <_LCD_InNibble>
 200:	a9 98       	cbi	0x15, 1	; 21
 202:	81 2b       	or	r24, r17
 204:	1f 91       	pop	r17
 206:	08 95       	ret

00000208 <LCD_ReadStatus>:
 208:	97 98       	cbi	0x12, 7	; 18
 20a:	0e 94 f0 00 	call	0x1e0	; 0x1e0 <_LCD_Read>
 20e:	08 95       	ret

00000210 <_LCD_Write>:
 210:	1f 93       	push	r17
 212:	18 2f       	mov	r17, r24
 214:	d4 9a       	sbi	0x1a, 4	; 26
 216:	d3 9a       	sbi	0x1a, 3	; 26
 218:	d2 9a       	sbi	0x1a, 2	; 26
 21a:	d1 9a       	sbi	0x1a, 1	; 26
 21c:	a8 98       	cbi	0x15, 0	; 21
 21e:	a9 9a       	sbi	0x15, 1	; 21
 220:	82 95       	swap	r24
 222:	8f 70       	andi	r24, 0x0F	; 15
 224:	0e 94 cc 00 	call	0x198	; 0x198 <_LCD_OutNibble>
 228:	a9 98       	cbi	0x15, 1	; 21
 22a:	a9 9a       	sbi	0x15, 1	; 21
 22c:	81 2f       	mov	r24, r17
 22e:	0e 94 cc 00 	call	0x198	; 0x198 <_LCD_OutNibble>
 232:	a9 98       	cbi	0x15, 1	; 21
 234:	0e 94 04 01 	call	0x208	; 0x208 <LCD_ReadStatus>
 238:	87 fd       	sbrc	r24, 7
 23a:	fc cf       	rjmp	.-8      	; 0x234 <_LCD_Write+0x24>
 23c:	1f 91       	pop	r17
 23e:	08 95       	ret

00000240 <LCD_WriteCommand>:
 240:	97 98       	cbi	0x12, 7	; 18
 242:	0e 94 08 01 	call	0x210	; 0x210 <_LCD_Write>
 246:	08 95       	ret

00000248 <LCD_WriteData>:
 248:	97 9a       	sbi	0x12, 7	; 18
 24a:	0e 94 08 01 	call	0x210	; 0x210 <_LCD_Write>
 24e:	08 95       	ret

00000250 <LCD_ReadData>:
 250:	97 9a       	sbi	0x12, 7	; 18
 252:	0e 94 f0 00 	call	0x1e0	; 0x1e0 <_LCD_Read>
 256:	08 95       	ret

00000258 <LCD_WriteText>:
 258:	cf 93       	push	r28
 25a:	df 93       	push	r29
 25c:	ec 01       	movw	r28, r24
 25e:	03 c0       	rjmp	.+6      	; 0x266 <LCD_WriteText+0xe>
 260:	21 96       	adiw	r28, 0x01	; 1
 262:	0e 94 24 01 	call	0x248	; 0x248 <LCD_WriteData>
 266:	88 81       	ld	r24, Y
 268:	88 23       	and	r24, r24
 26a:	d1 f7       	brne	.-12     	; 0x260 <LCD_WriteText+0x8>
 26c:	df 91       	pop	r29
 26e:	cf 91       	pop	r28
 270:	08 95       	ret

00000272 <LCD_GoTo>:
 272:	62 95       	swap	r22
 274:	66 0f       	add	r22, r22
 276:	66 0f       	add	r22, r22
 278:	60 7c       	andi	r22, 0xC0	; 192
 27a:	68 0f       	add	r22, r24
 27c:	86 2f       	mov	r24, r22
 27e:	80 68       	ori	r24, 0x80	; 128
 280:	0e 94 20 01 	call	0x240	; 0x240 <LCD_WriteCommand>
 284:	08 95       	ret

00000286 <LCD_Clear>:
 286:	81 e0       	ldi	r24, 0x01	; 1
 288:	0e 94 20 01 	call	0x240	; 0x240 <LCD_WriteCommand>
 28c:	80 ea       	ldi	r24, 0xA0	; 160
 28e:	9f e0       	ldi	r25, 0x0F	; 15
 290:	01 97       	sbiw	r24, 0x01	; 1
 292:	f1 f7       	brne	.-4      	; 0x290 <LCD_Clear+0xa>
 294:	08 95       	ret

00000296 <LCD_Home>:
 296:	82 e0       	ldi	r24, 0x02	; 2
 298:	0e 94 20 01 	call	0x240	; 0x240 <LCD_WriteCommand>
 29c:	80 ea       	ldi	r24, 0xA0	; 160
 29e:	9f e0       	ldi	r25, 0x0F	; 15
 2a0:	01 97       	sbiw	r24, 0x01	; 1
 2a2:	f1 f7       	brne	.-4      	; 0x2a0 <LCD_Home+0xa>
 2a4:	08 95       	ret

000002a6 <LCD_Initalize>:
 2a6:	1f 93       	push	r17
 2a8:	cf 93       	push	r28
 2aa:	df 93       	push	r29
 2ac:	d4 9a       	sbi	0x1a, 4	; 26
 2ae:	d3 9a       	sbi	0x1a, 3	; 26
 2b0:	d2 9a       	sbi	0x1a, 2	; 26
 2b2:	d1 9a       	sbi	0x1a, 1	; 26
 2b4:	a1 9a       	sbi	0x14, 1	; 20
 2b6:	8f 9a       	sbi	0x11, 7	; 17
 2b8:	a0 9a       	sbi	0x14, 0	; 20
 2ba:	80 e3       	ldi	r24, 0x30	; 48
 2bc:	95 e7       	ldi	r25, 0x75	; 117
 2be:	01 97       	sbiw	r24, 0x01	; 1
 2c0:	f1 f7       	brne	.-4      	; 0x2be <LCD_Initalize+0x18>
 2c2:	97 98       	cbi	0x12, 7	; 18
 2c4:	a9 98       	cbi	0x15, 1	; 21
 2c6:	a8 98       	cbi	0x15, 0	; 21
 2c8:	10 e0       	ldi	r17, 0x00	; 0
 2ca:	c0 e1       	ldi	r28, 0x10	; 16
 2cc:	d7 e2       	ldi	r29, 0x27	; 39
 2ce:	a9 9a       	sbi	0x15, 1	; 21
 2d0:	83 e0       	ldi	r24, 0x03	; 3
 2d2:	0e 94 cc 00 	call	0x198	; 0x198 <_LCD_OutNibble>
 2d6:	a9 98       	cbi	0x15, 1	; 21
 2d8:	ce 01       	movw	r24, r28
 2da:	01 97       	sbiw	r24, 0x01	; 1
 2dc:	f1 f7       	brne	.-4      	; 0x2da <LCD_Initalize+0x34>
 2de:	1f 5f       	subi	r17, 0xFF	; 255
 2e0:	13 30       	cpi	r17, 0x03	; 3
 2e2:	a9 f7       	brne	.-22     	; 0x2ce <LCD_Initalize+0x28>
 2e4:	a9 9a       	sbi	0x15, 1	; 21
 2e6:	82 e0       	ldi	r24, 0x02	; 2
 2e8:	0e 94 cc 00 	call	0x198	; 0x198 <_LCD_OutNibble>
 2ec:	a9 98       	cbi	0x15, 1	; 21
 2ee:	80 ed       	ldi	r24, 0xD0	; 208
 2f0:	97 e0       	ldi	r25, 0x07	; 7
 2f2:	01 97       	sbiw	r24, 0x01	; 1
 2f4:	f1 f7       	brne	.-4      	; 0x2f2 <LCD_Initalize+0x4c>
 2f6:	88 e2       	ldi	r24, 0x28	; 40
 2f8:	0e 94 20 01 	call	0x240	; 0x240 <LCD_WriteCommand>
 2fc:	88 e0       	ldi	r24, 0x08	; 8
 2fe:	0e 94 20 01 	call	0x240	; 0x240 <LCD_WriteCommand>
 302:	81 e0       	ldi	r24, 0x01	; 1
 304:	0e 94 20 01 	call	0x240	; 0x240 <LCD_WriteCommand>
 308:	86 e0       	ldi	r24, 0x06	; 6
 30a:	0e 94 20 01 	call	0x240	; 0x240 <LCD_WriteCommand>
 30e:	8c e0       	ldi	r24, 0x0C	; 12
 310:	0e 94 20 01 	call	0x240	; 0x240 <LCD_WriteCommand>
 314:	df 91       	pop	r29
 316:	cf 91       	pop	r28
 318:	1f 91       	pop	r17
 31a:	08 95       	ret

0000031c <init_adc>:
 31c:	3e 9a       	sbi	0x07, 6	; 7
 31e:	86 b1       	in	r24, 0x06	; 6
 320:	86 6e       	ori	r24, 0xE6	; 230
 322:	86 b9       	out	0x06, r24	; 6
 324:	08 95       	ret

00000326 <initATkbd>:
 326:	8e 98       	cbi	0x11, 6	; 17
 328:	96 9a       	sbi	0x12, 6	; 18
 32a:	8a 98       	cbi	0x11, 2	; 17
 32c:	92 9a       	sbi	0x12, 2	; 18
 32e:	8b b7       	in	r24, 0x3b	; 59
 330:	80 64       	ori	r24, 0x40	; 64
 332:	8b bf       	out	0x3b, r24	; 59
 334:	85 b7       	in	r24, 0x35	; 53
 336:	82 60       	ori	r24, 0x02	; 2
 338:	85 bf       	out	0x35, r24	; 53
 33a:	78 94       	sei
 33c:	08 95       	ret

0000033e <getATkbd>:
 33e:	80 91 21 01 	lds	r24, 0x0121
 342:	88 23       	and	r24, r24
 344:	e1 f3       	breq	.-8      	; 0x33e <getATkbd>
 346:	10 92 21 01 	sts	0x0121, r1
 34a:	80 91 20 01 	lds	r24, 0x0120
 34e:	08 95       	ret

00000350 <getcommand>:
 350:	df 93       	push	r29
 352:	cf 93       	push	r28
 354:	00 d0       	rcall	.+0      	; 0x356 <getcommand+0x6>
 356:	cd b7       	in	r28, 0x3d	; 61
 358:	de b7       	in	r29, 0x3e	; 62
 35a:	80 91 75 01 	lds	r24, 0x0175
 35e:	88 23       	and	r24, r24
 360:	09 f4       	brne	.+2      	; 0x364 <getcommand+0x14>
 362:	55 c0       	rjmp	.+170    	; 0x40e <getcommand+0xbe>
 364:	80 91 7b 01 	lds	r24, 0x017B
 368:	88 23       	and	r24, r24
 36a:	09 f4       	brne	.+2      	; 0x36e <getcommand+0x1e>
 36c:	50 c0       	rjmp	.+160    	; 0x40e <getcommand+0xbe>
 36e:	10 92 7b 01 	sts	0x017B, r1
 372:	e0 91 7a 01 	lds	r30, 0x017A
 376:	f0 e0       	ldi	r31, 0x00	; 0
 378:	ec 5a       	subi	r30, 0xAC	; 172
 37a:	ff 4f       	sbci	r31, 0xFF	; 255
 37c:	e4 91       	lpm	r30, Z+
 37e:	e9 83       	std	Y+1, r30	; 0x01
 380:	80 91 7a 01 	lds	r24, 0x017A
 384:	88 35       	cpi	r24, 0x58	; 88
 386:	31 f4       	brne	.+12     	; 0x394 <getcommand+0x44>
 388:	80 91 23 01 	lds	r24, 0x0123
 38c:	91 e0       	ldi	r25, 0x01	; 1
 38e:	89 27       	eor	r24, r25
 390:	80 93 23 01 	sts	0x0123, r24
 394:	80 91 7a 01 	lds	r24, 0x017A
 398:	85 30       	cpi	r24, 0x05	; 5
 39a:	21 f4       	brne	.+8      	; 0x3a4 <getcommand+0x54>
 39c:	81 e0       	ldi	r24, 0x01	; 1
 39e:	80 93 77 01 	sts	0x0177, r24
 3a2:	19 82       	std	Y+1, r1	; 0x01
 3a4:	80 91 23 01 	lds	r24, 0x0123
 3a8:	88 23       	and	r24, r24
 3aa:	91 f0       	breq	.+36     	; 0x3d0 <getcommand+0x80>
 3ac:	99 81       	ldd	r25, Y+1	; 0x01
 3ae:	89 2f       	mov	r24, r25
 3b0:	81 56       	subi	r24, 0x61	; 97
 3b2:	8a 31       	cpi	r24, 0x1A	; 26
 3b4:	10 f4       	brcc	.+4      	; 0x3ba <getcommand+0x6a>
 3b6:	90 52       	subi	r25, 0x20	; 32
 3b8:	99 83       	std	Y+1, r25	; 0x01
 3ba:	89 81       	ldd	r24, Y+1	; 0x01
 3bc:	8d 33       	cpi	r24, 0x3D	; 61
 3be:	11 f4       	brne	.+4      	; 0x3c4 <getcommand+0x74>
 3c0:	8b e2       	ldi	r24, 0x2B	; 43
 3c2:	89 83       	std	Y+1, r24	; 0x01
 3c4:	80 91 7a 01 	lds	r24, 0x017A
 3c8:	82 35       	cpi	r24, 0x52	; 82
 3ca:	11 f4       	brne	.+4      	; 0x3d0 <getcommand+0x80>
 3cc:	82 e2       	ldi	r24, 0x22	; 34
 3ce:	89 83       	std	Y+1, r24	; 0x01
 3d0:	10 92 75 01 	sts	0x0175, r1
 3d4:	cc 30       	cpi	r28, 0x0C	; 12
 3d6:	d1 05       	cpc	r29, r1
 3d8:	09 f4       	brne	.+2      	; 0x3dc <getcommand+0x8c>
 3da:	19 82       	std	Y+1, r1	; 0x01
 3dc:	1a 82       	std	Y+2, r1	; 0x02
 3de:	80 91 7a 01 	lds	r24, 0x017A
 3e2:	86 36       	cpi	r24, 0x66	; 102
 3e4:	59 f4       	brne	.+22     	; 0x3fc <getcommand+0xac>
 3e6:	80 91 4c 01 	lds	r24, 0x014C
 3ea:	88 23       	and	r24, r24
 3ec:	39 f0       	breq	.+14     	; 0x3fc <getcommand+0xac>
 3ee:	ec e4       	ldi	r30, 0x4C	; 76
 3f0:	f1 e0       	ldi	r31, 0x01	; 1
 3f2:	01 90       	ld	r0, Z+
 3f4:	00 20       	and	r0, r0
 3f6:	e9 f7       	brne	.-6      	; 0x3f2 <getcommand+0xa2>
 3f8:	32 97       	sbiw	r30, 0x02	; 2
 3fa:	10 82       	st	Z, r1
 3fc:	8c e4       	ldi	r24, 0x4C	; 76
 3fe:	91 e0       	ldi	r25, 0x01	; 1
 400:	be 01       	movw	r22, r28
 402:	6f 5f       	subi	r22, 0xFF	; 255
 404:	7f 4f       	sbci	r23, 0xFF	; 255
 406:	0e 94 13 06 	call	0xc26	; 0xc26 <strcat>
 40a:	0e 94 b1 04 	call	0x962	; 0x962 <lcd_display>
 40e:	0f 90       	pop	r0
 410:	0f 90       	pop	r0
 412:	cf 91       	pop	r28
 414:	df 91       	pop	r29
 416:	08 95       	ret

00000418 <__vector_1>:
 418:	1f 92       	push	r1
 41a:	0f 92       	push	r0
 41c:	0f b6       	in	r0, 0x3f	; 63
 41e:	0f 92       	push	r0
 420:	11 24       	eor	r1, r1
 422:	2f 93       	push	r18
 424:	3f 93       	push	r19
 426:	4f 93       	push	r20
 428:	5f 93       	push	r21
 42a:	6f 93       	push	r22
 42c:	7f 93       	push	r23
 42e:	8f 93       	push	r24
 430:	9f 93       	push	r25
 432:	af 93       	push	r26
 434:	bf 93       	push	r27
 436:	ef 93       	push	r30
 438:	ff 93       	push	r31
 43a:	80 91 22 01 	lds	r24, 0x0122
 43e:	85 30       	cpi	r24, 0x05	; 5
 440:	09 f4       	brne	.+2      	; 0x444 <__vector_1+0x2c>
 442:	47 c0       	rjmp	.+142    	; 0x4d2 <__stack+0x73>
 444:	86 30       	cpi	r24, 0x06	; 6
 446:	80 f4       	brcc	.+32     	; 0x468 <__stack+0x9>
 448:	82 30       	cpi	r24, 0x02	; 2
 44a:	89 f1       	breq	.+98     	; 0x4ae <__stack+0x4f>
 44c:	83 30       	cpi	r24, 0x03	; 3
 44e:	30 f4       	brcc	.+12     	; 0x45c <__vector_1+0x44>
 450:	88 23       	and	r24, r24
 452:	e1 f0       	breq	.+56     	; 0x48c <__stack+0x2d>
 454:	81 30       	cpi	r24, 0x01	; 1
 456:	09 f0       	breq	.+2      	; 0x45a <__vector_1+0x42>
 458:	74 c0       	rjmp	.+232    	; 0x542 <__stack+0xe3>
 45a:	23 c0       	rjmp	.+70     	; 0x4a2 <__stack+0x43>
 45c:	83 30       	cpi	r24, 0x03	; 3
 45e:	69 f1       	breq	.+90     	; 0x4ba <__stack+0x5b>
 460:	84 30       	cpi	r24, 0x04	; 4
 462:	09 f0       	breq	.+2      	; 0x466 <__stack+0x7>
 464:	6e c0       	rjmp	.+220    	; 0x542 <__stack+0xe3>
 466:	2f c0       	rjmp	.+94     	; 0x4c6 <__stack+0x67>
 468:	88 30       	cpi	r24, 0x08	; 8
 46a:	09 f4       	brne	.+2      	; 0x46e <__stack+0xf>
 46c:	44 c0       	rjmp	.+136    	; 0x4f6 <__stack+0x97>
 46e:	89 30       	cpi	r24, 0x09	; 9
 470:	30 f4       	brcc	.+12     	; 0x47e <__stack+0x1f>
 472:	86 30       	cpi	r24, 0x06	; 6
 474:	a1 f1       	breq	.+104    	; 0x4de <__stack+0x7f>
 476:	87 30       	cpi	r24, 0x07	; 7
 478:	09 f0       	breq	.+2      	; 0x47c <__stack+0x1d>
 47a:	63 c0       	rjmp	.+198    	; 0x542 <__stack+0xe3>
 47c:	36 c0       	rjmp	.+108    	; 0x4ea <__stack+0x8b>
 47e:	89 30       	cpi	r24, 0x09	; 9
 480:	09 f4       	brne	.+2      	; 0x484 <__stack+0x25>
 482:	40 c0       	rjmp	.+128    	; 0x504 <__stack+0xa5>
 484:	8a 30       	cpi	r24, 0x0A	; 10
 486:	09 f0       	breq	.+2      	; 0x48a <__stack+0x2b>
 488:	5c c0       	rjmp	.+184    	; 0x542 <__stack+0xe3>
 48a:	42 c0       	rjmp	.+132    	; 0x510 <__stack+0xb1>
 48c:	10 92 20 01 	sts	0x0120, r1
 490:	80 91 22 01 	lds	r24, 0x0122
 494:	8f 5f       	subi	r24, 0xFF	; 255
 496:	80 93 22 01 	sts	0x0122, r24
 49a:	81 e0       	ldi	r24, 0x01	; 1
 49c:	80 93 75 01 	sts	0x0175, r24
 4a0:	50 c0       	rjmp	.+160    	; 0x542 <__stack+0xe3>
 4a2:	86 9b       	sbis	0x10, 6	; 16
 4a4:	2f c0       	rjmp	.+94     	; 0x504 <__stack+0xa5>
 4a6:	80 91 20 01 	lds	r24, 0x0120
 4aa:	81 60       	ori	r24, 0x01	; 1
 4ac:	29 c0       	rjmp	.+82     	; 0x500 <__stack+0xa1>
 4ae:	86 9b       	sbis	0x10, 6	; 16
 4b0:	29 c0       	rjmp	.+82     	; 0x504 <__stack+0xa5>
 4b2:	80 91 20 01 	lds	r24, 0x0120
 4b6:	82 60       	ori	r24, 0x02	; 2
 4b8:	23 c0       	rjmp	.+70     	; 0x500 <__stack+0xa1>
 4ba:	86 9b       	sbis	0x10, 6	; 16
 4bc:	23 c0       	rjmp	.+70     	; 0x504 <__stack+0xa5>
 4be:	80 91 20 01 	lds	r24, 0x0120
 4c2:	84 60       	ori	r24, 0x04	; 4
 4c4:	1d c0       	rjmp	.+58     	; 0x500 <__stack+0xa1>
 4c6:	86 9b       	sbis	0x10, 6	; 16
 4c8:	1d c0       	rjmp	.+58     	; 0x504 <__stack+0xa5>
 4ca:	80 91 20 01 	lds	r24, 0x0120
 4ce:	88 60       	ori	r24, 0x08	; 8
 4d0:	17 c0       	rjmp	.+46     	; 0x500 <__stack+0xa1>
 4d2:	86 9b       	sbis	0x10, 6	; 16
 4d4:	17 c0       	rjmp	.+46     	; 0x504 <__stack+0xa5>
 4d6:	80 91 20 01 	lds	r24, 0x0120
 4da:	80 61       	ori	r24, 0x10	; 16
 4dc:	11 c0       	rjmp	.+34     	; 0x500 <__stack+0xa1>
 4de:	86 9b       	sbis	0x10, 6	; 16
 4e0:	11 c0       	rjmp	.+34     	; 0x504 <__stack+0xa5>
 4e2:	80 91 20 01 	lds	r24, 0x0120
 4e6:	80 62       	ori	r24, 0x20	; 32
 4e8:	0b c0       	rjmp	.+22     	; 0x500 <__stack+0xa1>
 4ea:	86 9b       	sbis	0x10, 6	; 16
 4ec:	0b c0       	rjmp	.+22     	; 0x504 <__stack+0xa5>
 4ee:	80 91 20 01 	lds	r24, 0x0120
 4f2:	80 64       	ori	r24, 0x40	; 64
 4f4:	05 c0       	rjmp	.+10     	; 0x500 <__stack+0xa1>
 4f6:	86 9b       	sbis	0x10, 6	; 16
 4f8:	05 c0       	rjmp	.+10     	; 0x504 <__stack+0xa5>
 4fa:	80 91 20 01 	lds	r24, 0x0120
 4fe:	80 68       	ori	r24, 0x80	; 128
 500:	80 93 20 01 	sts	0x0120, r24
 504:	80 91 22 01 	lds	r24, 0x0122
 508:	8f 5f       	subi	r24, 0xFF	; 255
 50a:	80 93 22 01 	sts	0x0122, r24
 50e:	19 c0       	rjmp	.+50     	; 0x542 <__stack+0xe3>
 510:	91 e0       	ldi	r25, 0x01	; 1
 512:	90 93 21 01 	sts	0x0121, r25
 516:	90 93 74 01 	sts	0x0174, r25
 51a:	10 92 22 01 	sts	0x0122, r1
 51e:	80 91 20 01 	lds	r24, 0x0120
 522:	80 3f       	cpi	r24, 0xF0	; 240
 524:	41 f4       	brne	.+16     	; 0x536 <__stack+0xd7>
 526:	80 91 79 01 	lds	r24, 0x0179
 52a:	89 27       	eor	r24, r25
 52c:	80 93 79 01 	sts	0x0179, r24
 530:	90 93 7b 01 	sts	0x017B, r25
 534:	04 c0       	rjmp	.+8      	; 0x53e <__stack+0xdf>
 536:	80 91 20 01 	lds	r24, 0x0120
 53a:	80 93 7a 01 	sts	0x017A, r24
 53e:	0e 94 a8 01 	call	0x350	; 0x350 <getcommand>
 542:	ff 91       	pop	r31
 544:	ef 91       	pop	r30
 546:	bf 91       	pop	r27
 548:	af 91       	pop	r26
 54a:	9f 91       	pop	r25
 54c:	8f 91       	pop	r24
 54e:	7f 91       	pop	r23
 550:	6f 91       	pop	r22
 552:	5f 91       	pop	r21
 554:	4f 91       	pop	r20
 556:	3f 91       	pop	r19
 558:	2f 91       	pop	r18
 55a:	0f 90       	pop	r0
 55c:	0f be       	out	0x3f, r0	; 63
 55e:	0f 90       	pop	r0
 560:	1f 90       	pop	r1
 562:	18 95       	reti

00000564 <send_sms>:
 564:	ff 92       	push	r15
 566:	0f 93       	push	r16
 568:	1f 93       	push	r17
 56a:	df 93       	push	r29
 56c:	cf 93       	push	r28
 56e:	cd b7       	in	r28, 0x3d	; 61
 570:	de b7       	in	r29, 0x3e	; 62
 572:	a8 97       	sbiw	r28, 0x28	; 40
 574:	0f b6       	in	r0, 0x3f	; 63
 576:	f8 94       	cli
 578:	de bf       	out	0x3e, r29	; 62
 57a:	0f be       	out	0x3f, r0	; 63
 57c:	cd bf       	out	0x3d, r28	; 61
 57e:	8e 01       	movw	r16, r28
 580:	0f 5f       	subi	r16, 0xFF	; 255
 582:	1f 4f       	sbci	r17, 0xFF	; 255
 584:	c8 01       	movw	r24, r16
 586:	60 e6       	ldi	r22, 0x60	; 96
 588:	70 e0       	ldi	r23, 0x00	; 0
 58a:	0e 94 1e 06 	call	0xc3c	; 0xc3c <strcpy>
 58e:	ff 24       	eor	r15, r15
 590:	06 c0       	rjmp	.+12     	; 0x59e <send_sms+0x3a>
 592:	a0 0f       	add	r26, r16
 594:	b1 1f       	adc	r27, r17
 596:	8c 91       	ld	r24, X
 598:	0e 94 ab 05 	call	0xb56	; 0xb56 <USART_Transmit>
 59c:	f3 94       	inc	r15
 59e:	f8 01       	movw	r30, r16
 5a0:	01 90       	ld	r0, Z+
 5a2:	00 20       	and	r0, r0
 5a4:	e9 f7       	brne	.-6      	; 0x5a0 <send_sms+0x3c>
 5a6:	31 97       	sbiw	r30, 0x01	; 1
 5a8:	e0 1b       	sub	r30, r16
 5aa:	f1 0b       	sbc	r31, r17
 5ac:	af 2d       	mov	r26, r15
 5ae:	b0 e0       	ldi	r27, 0x00	; 0
 5b0:	ae 17       	cp	r26, r30
 5b2:	bf 07       	cpc	r27, r31
 5b4:	70 f3       	brcs	.-36     	; 0x592 <send_sms+0x2e>
 5b6:	88 ee       	ldi	r24, 0xE8	; 232
 5b8:	93 e0       	ldi	r25, 0x03	; 3
 5ba:	28 ec       	ldi	r18, 0xC8	; 200
 5bc:	30 e0       	ldi	r19, 0x00	; 0
 5be:	f9 01       	movw	r30, r18
 5c0:	31 97       	sbiw	r30, 0x01	; 1
 5c2:	f1 f7       	brne	.-4      	; 0x5c0 <send_sms+0x5c>
 5c4:	01 97       	sbiw	r24, 0x01	; 1
 5c6:	d9 f7       	brne	.-10     	; 0x5be <send_sms+0x5a>
 5c8:	8e 01       	movw	r16, r28
 5ca:	0f 5f       	subi	r16, 0xFF	; 255
 5cc:	1f 4f       	sbci	r17, 0xFF	; 255
 5ce:	c8 01       	movw	r24, r16
 5d0:	6b e6       	ldi	r22, 0x6B	; 107
 5d2:	70 e0       	ldi	r23, 0x00	; 0
 5d4:	0e 94 1e 06 	call	0xc3c	; 0xc3c <strcpy>
 5d8:	c8 01       	movw	r24, r16
 5da:	65 e7       	ldi	r22, 0x75	; 117
 5dc:	70 e0       	ldi	r23, 0x00	; 0
 5de:	0e 94 13 06 	call	0xc26	; 0xc26 <strcat>
 5e2:	c8 01       	movw	r24, r16
 5e4:	62 e8       	ldi	r22, 0x82	; 130
 5e6:	70 e0       	ldi	r23, 0x00	; 0
 5e8:	0e 94 13 06 	call	0xc26	; 0xc26 <strcat>
 5ec:	ff 24       	eor	r15, r15
 5ee:	06 c0       	rjmp	.+12     	; 0x5fc <send_sms+0x98>
 5f0:	a0 0f       	add	r26, r16
 5f2:	b1 1f       	adc	r27, r17
 5f4:	8c 91       	ld	r24, X
 5f6:	0e 94 ab 05 	call	0xb56	; 0xb56 <USART_Transmit>
 5fa:	f3 94       	inc	r15
 5fc:	f8 01       	movw	r30, r16
 5fe:	01 90       	ld	r0, Z+
 600:	00 20       	and	r0, r0
 602:	e9 f7       	brne	.-6      	; 0x5fe <send_sms+0x9a>
 604:	31 97       	sbiw	r30, 0x01	; 1
 606:	e0 1b       	sub	r30, r16
 608:	f1 0b       	sbc	r31, r17
 60a:	af 2d       	mov	r26, r15
 60c:	b0 e0       	ldi	r27, 0x00	; 0
 60e:	ae 17       	cp	r26, r30
 610:	bf 07       	cpc	r27, r31
 612:	70 f3       	brcs	.-36     	; 0x5f0 <send_sms+0x8c>
 614:	a8 96       	adiw	r28, 0x28	; 40
 616:	0f b6       	in	r0, 0x3f	; 63
 618:	f8 94       	cli
 61a:	de bf       	out	0x3e, r29	; 62
 61c:	0f be       	out	0x3f, r0	; 63
 61e:	cd bf       	out	0x3d, r28	; 61
 620:	cf 91       	pop	r28
 622:	df 91       	pop	r29
 624:	1f 91       	pop	r17
 626:	0f 91       	pop	r16
 628:	ff 90       	pop	r15
 62a:	08 95       	ret

0000062c <mode_2>:
 62c:	7f 92       	push	r7
 62e:	8f 92       	push	r8
 630:	9f 92       	push	r9
 632:	af 92       	push	r10
 634:	bf 92       	push	r11
 636:	cf 92       	push	r12
 638:	df 92       	push	r13
 63a:	ef 92       	push	r14
 63c:	ff 92       	push	r15
 63e:	0f 93       	push	r16
 640:	1f 93       	push	r17
 642:	df 93       	push	r29
 644:	cf 93       	push	r28
 646:	00 d0       	rcall	.+0      	; 0x648 <mode_2+0x1c>
 648:	00 d0       	rcall	.+0      	; 0x64a <mode_2+0x1e>
 64a:	cd b7       	in	r28, 0x3d	; 61
 64c:	de b7       	in	r29, 0x3e	; 62
 64e:	10 92 8d 01 	sts	0x018D, r1
 652:	a4 e2       	ldi	r26, 0x24	; 36
 654:	b1 e0       	ldi	r27, 0x01	; 1
 656:	fd 01       	movw	r30, r26
 658:	01 90       	ld	r0, Z+
 65a:	00 20       	and	r0, r0
 65c:	e9 f7       	brne	.-6      	; 0x658 <mode_2+0x2c>
 65e:	31 97       	sbiw	r30, 0x01	; 1
 660:	ea 1b       	sub	r30, r26
 662:	fb 0b       	sbc	r31, r27
 664:	2c e4       	ldi	r18, 0x4C	; 76
 666:	82 2e       	mov	r8, r18
 668:	21 e0       	ldi	r18, 0x01	; 1
 66a:	92 2e       	mov	r9, r18
 66c:	7d 01       	movw	r14, r26
 66e:	91 e2       	ldi	r25, 0x21	; 33
 670:	79 2e       	mov	r7, r25
 672:	00 e4       	ldi	r16, 0x40	; 64
 674:	8d e8       	ldi	r24, 0x8D	; 141
 676:	a8 2e       	mov	r10, r24
 678:	81 e0       	ldi	r24, 0x01	; 1
 67a:	b8 2e       	mov	r11, r24
 67c:	6e 01       	movw	r12, r28
 67e:	08 94       	sec
 680:	c1 1c       	adc	r12, r1
 682:	d1 1c       	adc	r13, r1
 684:	79 c0       	rjmp	.+242    	; 0x778 <mode_2+0x14c>
 686:	8d e8       	ldi	r24, 0x8D	; 141
 688:	91 e0       	ldi	r25, 0x01	; 1
 68a:	6b e8       	ldi	r22, 0x8B	; 139
 68c:	70 e0       	ldi	r23, 0x00	; 0
 68e:	0e 94 13 06 	call	0xc26	; 0xc26 <strcat>
 692:	f4 01       	movw	r30, r8
 694:	01 90       	ld	r0, Z+
 696:	00 20       	and	r0, r0
 698:	e9 f7       	brne	.-6      	; 0x694 <mode_2+0x68>
 69a:	31 97       	sbiw	r30, 0x01	; 1
 69c:	ec 54       	subi	r30, 0x4C	; 76
 69e:	f1 40       	sbci	r31, 0x01	; 1
 6a0:	70 97       	sbiw	r30, 0x10	; 16
 6a2:	a8 f0       	brcs	.+42     	; 0x6ce <mode_2+0xa2>
 6a4:	20 e0       	ldi	r18, 0x00	; 0
 6a6:	30 e0       	ldi	r19, 0x00	; 0
 6a8:	f7 01       	movw	r30, r14
 6aa:	01 90       	ld	r0, Z+
 6ac:	00 20       	and	r0, r0
 6ae:	e9 f7       	brne	.-6      	; 0x6aa <mode_2+0x7e>
 6b0:	e2 0f       	add	r30, r18
 6b2:	f3 1f       	adc	r31, r19
 6b4:	71 97       	sbiw	r30, 0x11	; 17
 6b6:	80 81       	ld	r24, Z
 6b8:	f9 01       	movw	r30, r18
 6ba:	e3 57       	subi	r30, 0x73	; 115
 6bc:	fe 4f       	sbci	r31, 0xFE	; 254
 6be:	80 83       	st	Z, r24
 6c0:	2f 5f       	subi	r18, 0xFF	; 255
 6c2:	3f 4f       	sbci	r19, 0xFF	; 255
 6c4:	20 31       	cpi	r18, 0x10	; 16
 6c6:	31 05       	cpc	r19, r1
 6c8:	79 f7       	brne	.-34     	; 0x6a8 <mode_2+0x7c>
 6ca:	10 e1       	ldi	r17, 0x10	; 16
 6cc:	53 c0       	rjmp	.+166    	; 0x774 <mode_2+0x148>
 6ce:	8d e8       	ldi	r24, 0x8D	; 141
 6d0:	91 e0       	ldi	r25, 0x01	; 1
 6d2:	64 e2       	ldi	r22, 0x24	; 36
 6d4:	71 e0       	ldi	r23, 0x01	; 1
 6d6:	0e 94 1e 06 	call	0xc3c	; 0xc3c <strcpy>
 6da:	90 e0       	ldi	r25, 0x00	; 0
 6dc:	1a c0       	rjmp	.+52     	; 0x712 <mode_2+0xe6>
 6de:	ad 01       	movw	r20, r26
 6e0:	4c 5d       	subi	r20, 0xDC	; 220
 6e2:	5e 4f       	sbci	r21, 0xFE	; 254
 6e4:	fa 01       	movw	r30, r20
 6e6:	80 81       	ld	r24, Z
 6e8:	9d 01       	movw	r18, r26
 6ea:	23 57       	subi	r18, 0x73	; 115
 6ec:	3e 4f       	sbci	r19, 0xFE	; 254
 6ee:	f9 01       	movw	r30, r18
 6f0:	80 83       	st	Z, r24
 6f2:	fa 01       	movw	r30, r20
 6f4:	80 81       	ld	r24, Z
 6f6:	8d 30       	cpi	r24, 0x0D	; 13
 6f8:	11 f4       	brne	.+4      	; 0x6fe <mode_2+0xd2>
 6fa:	f9 01       	movw	r30, r18
 6fc:	70 82       	st	Z, r7
 6fe:	fd 01       	movw	r30, r26
 700:	ec 5d       	subi	r30, 0xDC	; 220
 702:	fe 4f       	sbci	r31, 0xFE	; 254
 704:	80 81       	ld	r24, Z
 706:	8a 30       	cpi	r24, 0x0A	; 10
 708:	19 f4       	brne	.+6      	; 0x710 <mode_2+0xe4>
 70a:	a3 57       	subi	r26, 0x73	; 115
 70c:	be 4f       	sbci	r27, 0xFE	; 254
 70e:	0c 93       	st	X, r16
 710:	9f 5f       	subi	r25, 0xFF	; 255
 712:	f7 01       	movw	r30, r14
 714:	01 90       	ld	r0, Z+
 716:	00 20       	and	r0, r0
 718:	e9 f7       	brne	.-6      	; 0x714 <mode_2+0xe8>
 71a:	31 97       	sbiw	r30, 0x01	; 1
 71c:	e4 52       	subi	r30, 0x24	; 36
 71e:	f1 40       	sbci	r31, 0x01	; 1
 720:	a9 2f       	mov	r26, r25
 722:	b0 e0       	ldi	r27, 0x00	; 0
 724:	ae 17       	cp	r26, r30
 726:	bf 07       	cpc	r27, r31
 728:	d0 f2       	brcs	.-76     	; 0x6de <mode_2+0xb2>
 72a:	f5 01       	movw	r30, r10
 72c:	01 90       	ld	r0, Z+
 72e:	00 20       	and	r0, r0
 730:	e9 f7       	brne	.-6      	; 0x72c <mode_2+0x100>
 732:	31 97       	sbiw	r30, 0x01	; 1
 734:	ed 58       	subi	r30, 0x8D	; 141
 736:	f1 40       	sbci	r31, 0x01	; 1
 738:	1e 2f       	mov	r17, r30
 73a:	07 c0       	rjmp	.+14     	; 0x74a <mode_2+0x11e>
 73c:	8d e8       	ldi	r24, 0x8D	; 141
 73e:	91 e0       	ldi	r25, 0x01	; 1
 740:	6b e8       	ldi	r22, 0x8B	; 139
 742:	70 e0       	ldi	r23, 0x00	; 0
 744:	0e 94 13 06 	call	0xc26	; 0xc26 <strcat>
 748:	1f 5f       	subi	r17, 0xFF	; 255
 74a:	10 31       	cpi	r17, 0x10	; 16
 74c:	b8 f3       	brcs	.-18     	; 0x73c <mode_2+0x110>
 74e:	f7 01       	movw	r30, r14
 750:	01 90       	ld	r0, Z+
 752:	00 20       	and	r0, r0
 754:	e9 f7       	brne	.-6      	; 0x750 <mode_2+0x124>
 756:	31 97       	sbiw	r30, 0x01	; 1
 758:	cf 01       	movw	r24, r30
 75a:	84 52       	subi	r24, 0x24	; 36
 75c:	91 40       	sbci	r25, 0x01	; 1
 75e:	b6 01       	movw	r22, r12
 760:	4a e0       	ldi	r20, 0x0A	; 10
 762:	50 e0       	ldi	r21, 0x00	; 0
 764:	0e 94 25 06 	call	0xc4a	; 0xc4a <itoa>
 768:	1c 82       	std	Y+4, r1	; 0x04
 76a:	8c e7       	ldi	r24, 0x7C	; 124
 76c:	91 e0       	ldi	r25, 0x01	; 1
 76e:	b6 01       	movw	r22, r12
 770:	0e 94 1e 06 	call	0xc3c	; 0xc3c <strcpy>
 774:	e1 2f       	mov	r30, r17
 776:	ef 5f       	subi	r30, 0xFF	; 255
 778:	e0 31       	cpi	r30, 0x10	; 16
 77a:	08 f4       	brcc	.+2      	; 0x77e <mode_2+0x152>
 77c:	84 cf       	rjmp	.-248    	; 0x686 <mode_2+0x5a>
 77e:	0f 90       	pop	r0
 780:	0f 90       	pop	r0
 782:	0f 90       	pop	r0
 784:	0f 90       	pop	r0
 786:	cf 91       	pop	r28
 788:	df 91       	pop	r29
 78a:	1f 91       	pop	r17
 78c:	0f 91       	pop	r16
 78e:	ff 90       	pop	r15
 790:	ef 90       	pop	r14
 792:	df 90       	pop	r13
 794:	cf 90       	pop	r12
 796:	bf 90       	pop	r11
 798:	af 90       	pop	r10
 79a:	9f 90       	pop	r9
 79c:	8f 90       	pop	r8
 79e:	7f 90       	pop	r7
 7a0:	08 95       	ret

000007a2 <mode_1>:
 7a2:	cf 92       	push	r12
 7a4:	df 92       	push	r13
 7a6:	ef 92       	push	r14
 7a8:	ff 92       	push	r15
 7aa:	0f 93       	push	r16
 7ac:	1f 93       	push	r17
 7ae:	df 93       	push	r29
 7b0:	cf 93       	push	r28
 7b2:	cd b7       	in	r28, 0x3d	; 61
 7b4:	de b7       	in	r29, 0x3e	; 62
 7b6:	28 97       	sbiw	r28, 0x08	; 8
 7b8:	0f b6       	in	r0, 0x3f	; 63
 7ba:	f8 94       	cli
 7bc:	de bf       	out	0x3e, r29	; 62
 7be:	0f be       	out	0x3f, r0	; 63
 7c0:	cd bf       	out	0x3d, r28	; 61
 7c2:	80 91 7a 01 	lds	r24, 0x017A
 7c6:	90 e0       	ldi	r25, 0x00	; 0
 7c8:	be 01       	movw	r22, r28
 7ca:	6f 5f       	subi	r22, 0xFF	; 255
 7cc:	7f 4f       	sbci	r23, 0xFF	; 255
 7ce:	4a e0       	ldi	r20, 0x0A	; 10
 7d0:	50 e0       	ldi	r21, 0x00	; 0
 7d2:	0e 94 25 06 	call	0xc4a	; 0xc4a <itoa>
 7d6:	1c 82       	std	Y+4, r1	; 0x04
 7d8:	ac e4       	ldi	r26, 0x4C	; 76
 7da:	b1 e0       	ldi	r27, 0x01	; 1
 7dc:	fd 01       	movw	r30, r26
 7de:	01 90       	ld	r0, Z+
 7e0:	00 20       	and	r0, r0
 7e2:	e9 f7       	brne	.-6      	; 0x7de <mode_1+0x3c>
 7e4:	31 97       	sbiw	r30, 0x01	; 1
 7e6:	ea 1b       	sub	r30, r26
 7e8:	fb 0b       	sbc	r31, r27
 7ea:	70 97       	sbiw	r30, 0x10	; 16
 7ec:	a0 f0       	brcs	.+40     	; 0x816 <mode_1+0x74>
 7ee:	20 e0       	ldi	r18, 0x00	; 0
 7f0:	30 e0       	ldi	r19, 0x00	; 0
 7f2:	fd 01       	movw	r30, r26
 7f4:	01 90       	ld	r0, Z+
 7f6:	00 20       	and	r0, r0
 7f8:	e9 f7       	brne	.-6      	; 0x7f4 <mode_1+0x52>
 7fa:	e2 0f       	add	r30, r18
 7fc:	f3 1f       	adc	r31, r19
 7fe:	71 97       	sbiw	r30, 0x11	; 17
 800:	80 81       	ld	r24, Z
 802:	f9 01       	movw	r30, r18
 804:	e4 58       	subi	r30, 0x84	; 132
 806:	fe 4f       	sbci	r31, 0xFE	; 254
 808:	80 83       	st	Z, r24
 80a:	2f 5f       	subi	r18, 0xFF	; 255
 80c:	3f 4f       	sbci	r19, 0xFF	; 255
 80e:	20 31       	cpi	r18, 0x10	; 16
 810:	31 05       	cpc	r19, r1
 812:	79 f7       	brne	.-34     	; 0x7f2 <mode_1+0x50>
 814:	19 c0       	rjmp	.+50     	; 0x848 <mode_1+0xa6>
 816:	0c e7       	ldi	r16, 0x7C	; 124
 818:	11 e0       	ldi	r17, 0x01	; 1
 81a:	c8 01       	movw	r24, r16
 81c:	bd 01       	movw	r22, r26
 81e:	0e 94 1e 06 	call	0xc3c	; 0xc3c <strcpy>
 822:	f8 01       	movw	r30, r16
 824:	01 90       	ld	r0, Z+
 826:	00 20       	and	r0, r0
 828:	e9 f7       	brne	.-6      	; 0x824 <mode_1+0x82>
 82a:	8f 01       	movw	r16, r30
 82c:	01 50       	subi	r16, 0x01	; 1
 82e:	10 40       	sbci	r17, 0x00	; 0
 830:	0c 57       	subi	r16, 0x7C	; 124
 832:	11 40       	sbci	r17, 0x01	; 1
 834:	07 c0       	rjmp	.+14     	; 0x844 <mode_1+0xa2>
 836:	8c e7       	ldi	r24, 0x7C	; 124
 838:	91 e0       	ldi	r25, 0x01	; 1
 83a:	6b e8       	ldi	r22, 0x8B	; 139
 83c:	70 e0       	ldi	r23, 0x00	; 0
 83e:	0e 94 13 06 	call	0xc26	; 0xc26 <strcat>
 842:	0f 5f       	subi	r16, 0xFF	; 255
 844:	00 31       	cpi	r16, 0x10	; 16
 846:	b8 f3       	brcs	.-18     	; 0x836 <mode_1+0x94>
 848:	80 91 23 01 	lds	r24, 0x0123
 84c:	88 23       	and	r24, r24
 84e:	29 f0       	breq	.+10     	; 0x85a <mode_1+0xb8>
 850:	8d e8       	ldi	r24, 0x8D	; 141
 852:	91 e0       	ldi	r25, 0x01	; 1
 854:	6d e8       	ldi	r22, 0x8D	; 141
 856:	70 e0       	ldi	r23, 0x00	; 0
 858:	04 c0       	rjmp	.+8      	; 0x862 <mode_1+0xc0>
 85a:	8d e8       	ldi	r24, 0x8D	; 141
 85c:	91 e0       	ldi	r25, 0x01	; 1
 85e:	62 e9       	ldi	r22, 0x92	; 146
 860:	70 e0       	ldi	r23, 0x00	; 0
 862:	0e 94 1e 06 	call	0xc3c	; 0xc3c <strcpy>
 866:	8d e8       	ldi	r24, 0x8D	; 141
 868:	91 e0       	ldi	r25, 0x01	; 1
 86a:	67 e9       	ldi	r22, 0x97	; 151
 86c:	70 e0       	ldi	r23, 0x00	; 0
 86e:	0e 94 13 06 	call	0xc26	; 0xc26 <strcat>
 872:	00 e0       	ldi	r16, 0x00	; 0
 874:	7e 01       	movw	r14, r28
 876:	08 94       	sec
 878:	e1 1c       	adc	r14, r1
 87a:	f1 1c       	adc	r15, r1
 87c:	33 e0       	ldi	r19, 0x03	; 3
 87e:	c3 2e       	mov	r12, r19
 880:	d1 2c       	mov	r13, r1
 882:	07 c0       	rjmp	.+14     	; 0x892 <mode_1+0xf0>
 884:	8d e8       	ldi	r24, 0x8D	; 141
 886:	91 e0       	ldi	r25, 0x01	; 1
 888:	6a e9       	ldi	r22, 0x9A	; 154
 88a:	70 e0       	ldi	r23, 0x00	; 0
 88c:	0e 94 13 06 	call	0xc26	; 0xc26 <strcat>
 890:	0f 5f       	subi	r16, 0xFF	; 255
 892:	f7 01       	movw	r30, r14
 894:	01 90       	ld	r0, Z+
 896:	00 20       	and	r0, r0
 898:	e9 f7       	brne	.-6      	; 0x894 <mode_1+0xf2>
 89a:	31 97       	sbiw	r30, 0x01	; 1
 89c:	ee 19       	sub	r30, r14
 89e:	ff 09       	sbc	r31, r15
 8a0:	20 2f       	mov	r18, r16
 8a2:	30 e0       	ldi	r19, 0x00	; 0
 8a4:	c6 01       	movw	r24, r12
 8a6:	8e 1b       	sub	r24, r30
 8a8:	9f 0b       	sbc	r25, r31
 8aa:	28 17       	cp	r18, r24
 8ac:	39 07       	cpc	r19, r25
 8ae:	50 f3       	brcs	.-44     	; 0x884 <mode_1+0xe2>
 8b0:	8d e8       	ldi	r24, 0x8D	; 141
 8b2:	91 e0       	ldi	r25, 0x01	; 1
 8b4:	b7 01       	movw	r22, r14
 8b6:	0e 94 13 06 	call	0xc26	; 0xc26 <strcat>
 8ba:	8d e8       	ldi	r24, 0x8D	; 141
 8bc:	91 e0       	ldi	r25, 0x01	; 1
 8be:	6c e9       	ldi	r22, 0x9C	; 156
 8c0:	70 e0       	ldi	r23, 0x00	; 0
 8c2:	0e 94 13 06 	call	0xc26	; 0xc26 <strcat>
 8c6:	0c e4       	ldi	r16, 0x4C	; 76
 8c8:	11 e0       	ldi	r17, 0x01	; 1
 8ca:	f8 01       	movw	r30, r16
 8cc:	01 90       	ld	r0, Z+
 8ce:	00 20       	and	r0, r0
 8d0:	e9 f7       	brne	.-6      	; 0x8cc <mode_1+0x12a>
 8d2:	31 97       	sbiw	r30, 0x01	; 1
 8d4:	cf 01       	movw	r24, r30
 8d6:	80 1b       	sub	r24, r16
 8d8:	91 0b       	sbc	r25, r17
 8da:	be 01       	movw	r22, r28
 8dc:	6b 5f       	subi	r22, 0xFB	; 251
 8de:	7f 4f       	sbci	r23, 0xFF	; 255
 8e0:	4a e0       	ldi	r20, 0x0A	; 10
 8e2:	50 e0       	ldi	r21, 0x00	; 0
 8e4:	0e 94 25 06 	call	0xc4a	; 0xc4a <itoa>
 8e8:	f8 01       	movw	r30, r16
 8ea:	01 90       	ld	r0, Z+
 8ec:	00 20       	and	r0, r0
 8ee:	e9 f7       	brne	.-6      	; 0x8ea <mode_1+0x148>
 8f0:	8f 01       	movw	r16, r30
 8f2:	01 50       	subi	r16, 0x01	; 1
 8f4:	10 40       	sbci	r17, 0x00	; 0
 8f6:	0c 54       	subi	r16, 0x4C	; 76
 8f8:	11 40       	sbci	r17, 0x01	; 1
 8fa:	0a 30       	cpi	r16, 0x0A	; 10
 8fc:	11 05       	cpc	r17, r1
 8fe:	30 f4       	brcc	.+12     	; 0x90c <mode_1+0x16a>
 900:	8d e8       	ldi	r24, 0x8D	; 141
 902:	91 e0       	ldi	r25, 0x01	; 1
 904:	6b e8       	ldi	r22, 0x8B	; 139
 906:	70 e0       	ldi	r23, 0x00	; 0
 908:	0e 94 13 06 	call	0xc26	; 0xc26 <strcat>
 90c:	8d e8       	ldi	r24, 0x8D	; 141
 90e:	91 e0       	ldi	r25, 0x01	; 1
 910:	be 01       	movw	r22, r28
 912:	6b 5f       	subi	r22, 0xFB	; 251
 914:	7f 4f       	sbci	r23, 0xFF	; 255
 916:	0e 94 13 06 	call	0xc26	; 0xc26 <strcat>
 91a:	80 91 79 01 	lds	r24, 0x0179
 91e:	88 23       	and	r24, r24
 920:	49 f0       	breq	.+18     	; 0x934 <mode_1+0x192>
 922:	8d e8       	ldi	r24, 0x8D	; 141
 924:	91 e0       	ldi	r25, 0x01	; 1
 926:	6f e9       	ldi	r22, 0x9F	; 159
 928:	70 e0       	ldi	r23, 0x00	; 0
 92a:	0e 94 13 06 	call	0xc26	; 0xc26 <strcat>
 92e:	aa 9a       	sbi	0x15, 2	; 21
 930:	ab 98       	cbi	0x15, 3	; 21
 932:	08 c0       	rjmp	.+16     	; 0x944 <mode_1+0x1a2>
 934:	8d e8       	ldi	r24, 0x8D	; 141
 936:	91 e0       	ldi	r25, 0x01	; 1
 938:	63 ea       	ldi	r22, 0xA3	; 163
 93a:	70 e0       	ldi	r23, 0x00	; 0
 93c:	0e 94 13 06 	call	0xc26	; 0xc26 <strcat>
 940:	aa 98       	cbi	0x15, 2	; 21
 942:	ab 9a       	sbi	0x15, 3	; 21
 944:	28 96       	adiw	r28, 0x08	; 8
 946:	0f b6       	in	r0, 0x3f	; 63
 948:	f8 94       	cli
 94a:	de bf       	out	0x3e, r29	; 62
 94c:	0f be       	out	0x3f, r0	; 63
 94e:	cd bf       	out	0x3d, r28	; 61
 950:	cf 91       	pop	r28
 952:	df 91       	pop	r29
 954:	1f 91       	pop	r17
 956:	0f 91       	pop	r16
 958:	ff 90       	pop	r15
 95a:	ef 90       	pop	r14
 95c:	df 90       	pop	r13
 95e:	cf 90       	pop	r12
 960:	08 95       	ret

00000962 <lcd_display>:
 962:	ef 92       	push	r14
 964:	ff 92       	push	r15
 966:	0f 93       	push	r16
 968:	1f 93       	push	r17
 96a:	8c 01       	movw	r16, r24
 96c:	7b 01       	movw	r14, r22
 96e:	0e 94 16 03 	call	0x62c	; 0x62c <mode_2>
 972:	80 e0       	ldi	r24, 0x00	; 0
 974:	60 e0       	ldi	r22, 0x00	; 0
 976:	0e 94 39 01 	call	0x272	; 0x272 <LCD_GoTo>
 97a:	c8 01       	movw	r24, r16
 97c:	0e 94 2c 01 	call	0x258	; 0x258 <LCD_WriteText>
 980:	80 e0       	ldi	r24, 0x00	; 0
 982:	61 e0       	ldi	r22, 0x01	; 1
 984:	0e 94 39 01 	call	0x272	; 0x272 <LCD_GoTo>
 988:	c7 01       	movw	r24, r14
 98a:	0e 94 2c 01 	call	0x258	; 0x258 <LCD_WriteText>
 98e:	1f 91       	pop	r17
 990:	0f 91       	pop	r16
 992:	ff 90       	pop	r15
 994:	ef 90       	pop	r14
 996:	08 95       	ret

00000998 <LEDs_init>:
 998:	a3 9a       	sbi	0x14, 3	; 20
 99a:	a2 9a       	sbi	0x14, 2	; 20
 99c:	08 95       	ret

0000099e <main>:
 99e:	cf 92       	push	r12
 9a0:	df 92       	push	r13
 9a2:	ef 92       	push	r14
 9a4:	ff 92       	push	r15
 9a6:	0f 93       	push	r16
 9a8:	1f 93       	push	r17
 9aa:	df 93       	push	r29
 9ac:	cf 93       	push	r28
 9ae:	00 d0       	rcall	.+0      	; 0x9b0 <main+0x12>
 9b0:	00 d0       	rcall	.+0      	; 0x9b2 <main+0x14>
 9b2:	cd b7       	in	r28, 0x3d	; 61
 9b4:	de b7       	in	r29, 0x3e	; 62
 9b6:	84 b7       	in	r24, 0x34	; 52
 9b8:	80 68       	ori	r24, 0x80	; 128
 9ba:	84 bf       	out	0x34, r24	; 52
 9bc:	84 b7       	in	r24, 0x34	; 52
 9be:	80 68       	ori	r24, 0x80	; 128
 9c0:	84 bf       	out	0x34, r24	; 52
 9c2:	8c e7       	ldi	r24, 0x7C	; 124
 9c4:	91 e0       	ldi	r25, 0x01	; 1
 9c6:	67 ea       	ldi	r22, 0xA7	; 167
 9c8:	70 e0       	ldi	r23, 0x00	; 0
 9ca:	0e 94 1e 06 	call	0xc3c	; 0xc3c <strcpy>
 9ce:	8d e8       	ldi	r24, 0x8D	; 141
 9d0:	91 e0       	ldi	r25, 0x01	; 1
 9d2:	67 ea       	ldi	r22, 0xA7	; 167
 9d4:	70 e0       	ldi	r23, 0x00	; 0
 9d6:	0e 94 1e 06 	call	0xc3c	; 0xc3c <strcpy>
 9da:	a3 9a       	sbi	0x14, 3	; 20
 9dc:	a2 9a       	sbi	0x14, 2	; 20
 9de:	0e 94 53 01 	call	0x2a6	; 0x2a6 <LCD_Initalize>
 9e2:	0e 94 93 01 	call	0x326	; 0x326 <initATkbd>
 9e6:	83 e3       	ldi	r24, 0x33	; 51
 9e8:	90 e0       	ldi	r25, 0x00	; 0
 9ea:	0e 94 a4 05 	call	0xb48	; 0xb48 <USART_Init>
 9ee:	80 e2       	ldi	r24, 0x20	; 32
 9f0:	9e e4       	ldi	r25, 0x4E	; 78
 9f2:	28 ec       	ldi	r18, 0xC8	; 200
 9f4:	30 e0       	ldi	r19, 0x00	; 0
 9f6:	f9 01       	movw	r30, r18
 9f8:	31 97       	sbiw	r30, 0x01	; 1
 9fa:	f1 f7       	brne	.-4      	; 0x9f8 <main+0x5a>
 9fc:	01 97       	sbiw	r24, 0x01	; 1
 9fe:	d9 f7       	brne	.-10     	; 0x9f6 <main+0x58>
 a00:	80 e2       	ldi	r24, 0x20	; 32
 a02:	9e e4       	ldi	r25, 0x4E	; 78
 a04:	28 ec       	ldi	r18, 0xC8	; 200
 a06:	30 e0       	ldi	r19, 0x00	; 0
 a08:	f9 01       	movw	r30, r18
 a0a:	31 97       	sbiw	r30, 0x01	; 1
 a0c:	f1 f7       	brne	.-4      	; 0xa0a <main+0x6c>
 a0e:	01 97       	sbiw	r24, 0x01	; 1
 a10:	d9 f7       	brne	.-10     	; 0xa08 <main+0x6a>
 a12:	80 e2       	ldi	r24, 0x20	; 32
 a14:	9e e4       	ldi	r25, 0x4E	; 78
 a16:	28 ec       	ldi	r18, 0xC8	; 200
 a18:	30 e0       	ldi	r19, 0x00	; 0
 a1a:	f9 01       	movw	r30, r18
 a1c:	31 97       	sbiw	r30, 0x01	; 1
 a1e:	f1 f7       	brne	.-4      	; 0xa1c <main+0x7e>
 a20:	01 97       	sbiw	r24, 0x01	; 1
 a22:	d9 f7       	brne	.-10     	; 0xa1a <main+0x7c>
 a24:	80 e2       	ldi	r24, 0x20	; 32
 a26:	9e e4       	ldi	r25, 0x4E	; 78
 a28:	28 ec       	ldi	r18, 0xC8	; 200
 a2a:	30 e0       	ldi	r19, 0x00	; 0
 a2c:	f9 01       	movw	r30, r18
 a2e:	31 97       	sbiw	r30, 0x01	; 1
 a30:	f1 f7       	brne	.-4      	; 0xa2e <main+0x90>
 a32:	01 97       	sbiw	r24, 0x01	; 1
 a34:	d9 f7       	brne	.-10     	; 0xa2c <main+0x8e>
 a36:	88 eb       	ldi	r24, 0xB8	; 184
 a38:	90 e0       	ldi	r25, 0x00	; 0
 a3a:	0e 94 f3 05 	call	0xbe6	; 0xbe6 <USART_Transmit_string>
 a3e:	80 e2       	ldi	r24, 0x20	; 32
 a40:	9e e4       	ldi	r25, 0x4E	; 78
 a42:	28 ec       	ldi	r18, 0xC8	; 200
 a44:	30 e0       	ldi	r19, 0x00	; 0
 a46:	f9 01       	movw	r30, r18
 a48:	31 97       	sbiw	r30, 0x01	; 1
 a4a:	f1 f7       	brne	.-4      	; 0xa48 <main+0xaa>
 a4c:	01 97       	sbiw	r24, 0x01	; 1
 a4e:	d9 f7       	brne	.-10     	; 0xa46 <main+0xa8>
 a50:	78 94       	sei
 a52:	0e 94 8e 01 	call	0x31c	; 0x31c <init_adc>
 a56:	8c e4       	ldi	r24, 0x4C	; 76
 a58:	91 e0       	ldi	r25, 0x01	; 1
 a5a:	6b eb       	ldi	r22, 0xBB	; 187
 a5c:	70 e0       	ldi	r23, 0x00	; 0
 a5e:	0e 94 1e 06 	call	0xc3c	; 0xc3c <strcpy>
 a62:	00 e0       	ldi	r16, 0x00	; 0
 a64:	10 e0       	ldi	r17, 0x00	; 0
 a66:	88 ec       	ldi	r24, 0xC8	; 200
 a68:	e8 2e       	mov	r14, r24
 a6a:	f1 2c       	mov	r15, r1
 a6c:	6e 01       	movw	r12, r28
 a6e:	08 94       	sec
 a70:	c1 1c       	adc	r12, r1
 a72:	d1 1c       	adc	r13, r1
 a74:	8c e4       	ldi	r24, 0x4C	; 76
 a76:	91 e0       	ldi	r25, 0x01	; 1
 a78:	6f eb       	ldi	r22, 0xBF	; 191
 a7a:	70 e0       	ldi	r23, 0x00	; 0
 a7c:	0e 94 1e 06 	call	0xc3c	; 0xc3c <strcpy>
 a80:	8c e4       	ldi	r24, 0x4C	; 76
 a82:	91 e0       	ldi	r25, 0x01	; 1
 a84:	0e 94 f3 05 	call	0xbe6	; 0xbe6 <USART_Transmit_string>
 a88:	80 e3       	ldi	r24, 0x30	; 48
 a8a:	95 e7       	ldi	r25, 0x75	; 117
 a8c:	f7 01       	movw	r30, r14
 a8e:	31 97       	sbiw	r30, 0x01	; 1
 a90:	f1 f7       	brne	.-4      	; 0xa8e <main+0xf0>
 a92:	01 97       	sbiw	r24, 0x01	; 1
 a94:	d9 f7       	brne	.-10     	; 0xa8c <main+0xee>
 a96:	ab 9a       	sbi	0x15, 3	; 21
 a98:	8c e4       	ldi	r24, 0x4C	; 76
 a9a:	91 e0       	ldi	r25, 0x01	; 1
 a9c:	6b ec       	ldi	r22, 0xCB	; 203
 a9e:	70 e0       	ldi	r23, 0x00	; 0
 aa0:	0e 94 1e 06 	call	0xc3c	; 0xc3c <strcpy>
 aa4:	8c e4       	ldi	r24, 0x4C	; 76
 aa6:	91 e0       	ldi	r25, 0x01	; 1
 aa8:	0e 94 f3 05 	call	0xbe6	; 0xbe6 <USART_Transmit_string>
 aac:	80 e2       	ldi	r24, 0x20	; 32
 aae:	9e e4       	ldi	r25, 0x4E	; 78
 ab0:	f7 01       	movw	r30, r14
 ab2:	31 97       	sbiw	r30, 0x01	; 1
 ab4:	f1 f7       	brne	.-4      	; 0xab2 <main+0x114>
 ab6:	01 97       	sbiw	r24, 0x01	; 1
 ab8:	d9 f7       	brne	.-10     	; 0xab0 <main+0x112>
 aba:	ab 98       	cbi	0x15, 3	; 21
 abc:	8c e4       	ldi	r24, 0x4C	; 76
 abe:	91 e0       	ldi	r25, 0x01	; 1
 ac0:	64 ee       	ldi	r22, 0xE4	; 228
 ac2:	70 e0       	ldi	r23, 0x00	; 0
 ac4:	0e 94 1e 06 	call	0xc3c	; 0xc3c <strcpy>
 ac8:	c8 01       	movw	r24, r16
 aca:	b6 01       	movw	r22, r12
 acc:	4a e0       	ldi	r20, 0x0A	; 10
 ace:	50 e0       	ldi	r21, 0x00	; 0
 ad0:	0e 94 25 06 	call	0xc4a	; 0xc4a <itoa>
 ad4:	8c e4       	ldi	r24, 0x4C	; 76
 ad6:	91 e0       	ldi	r25, 0x01	; 1
 ad8:	b6 01       	movw	r22, r12
 ada:	0e 94 13 06 	call	0xc26	; 0xc26 <strcat>
 ade:	8c e4       	ldi	r24, 0x4C	; 76
 ae0:	91 e0       	ldi	r25, 0x01	; 1
 ae2:	69 ee       	ldi	r22, 0xE9	; 233
 ae4:	70 e0       	ldi	r23, 0x00	; 0
 ae6:	0e 94 13 06 	call	0xc26	; 0xc26 <strcat>
 aea:	8c e4       	ldi	r24, 0x4C	; 76
 aec:	91 e0       	ldi	r25, 0x01	; 1
 aee:	0e 94 f3 05 	call	0xbe6	; 0xbe6 <USART_Transmit_string>
 af2:	8f ef       	ldi	r24, 0xFF	; 255
 af4:	9f ef       	ldi	r25, 0xFF	; 255
 af6:	f7 01       	movw	r30, r14
 af8:	31 97       	sbiw	r30, 0x01	; 1
 afa:	f1 f7       	brne	.-4      	; 0xaf8 <main+0x15a>
 afc:	01 97       	sbiw	r24, 0x01	; 1
 afe:	d9 f7       	brne	.-10     	; 0xaf6 <main+0x158>
 b00:	80 e2       	ldi	r24, 0x20	; 32
 b02:	9e e4       	ldi	r25, 0x4E	; 78
 b04:	f7 01       	movw	r30, r14
 b06:	31 97       	sbiw	r30, 0x01	; 1
 b08:	f1 f7       	brne	.-4      	; 0xb06 <main+0x168>
 b0a:	01 97       	sbiw	r24, 0x01	; 1
 b0c:	d9 f7       	brne	.-10     	; 0xb04 <main+0x166>
 b0e:	0f 5f       	subi	r16, 0xFF	; 255
 b10:	1f 4f       	sbci	r17, 0xFF	; 255
 b12:	8c e7       	ldi	r24, 0x7C	; 124
 b14:	91 e0       	ldi	r25, 0x01	; 1
 b16:	6d e8       	ldi	r22, 0x8D	; 141
 b18:	71 e0       	ldi	r23, 0x01	; 1
 b1a:	0e 94 b1 04 	call	0x962	; 0x962 <lcd_display>
 b1e:	aa cf       	rjmp	.-172    	; 0xa74 <main+0xd6>

00000b20 <menu>:
 b20:	8d ee       	ldi	r24, 0xED	; 237
 b22:	90 e0       	ldi	r25, 0x00	; 0
 b24:	6e ef       	ldi	r22, 0xFE	; 254
 b26:	70 e0       	ldi	r23, 0x00	; 0
 b28:	0e 94 b1 04 	call	0x962	; 0x962 <lcd_display>
 b2c:	80 91 7a 01 	lds	r24, 0x017A
 b30:	8a 35       	cpi	r24, 0x5A	; 90
 b32:	29 f4       	brne	.+10     	; 0xb3e <menu+0x1e>
 b34:	8f e0       	ldi	r24, 0x0F	; 15
 b36:	91 e0       	ldi	r25, 0x01	; 1
 b38:	63 e1       	ldi	r22, 0x13	; 19
 b3a:	71 e0       	ldi	r23, 0x01	; 1
 b3c:	f5 cf       	rjmp	.-22     	; 0xb28 <menu+0x8>
 b3e:	87 e1       	ldi	r24, 0x17	; 23
 b40:	91 e0       	ldi	r25, 0x01	; 1
 b42:	6b e1       	ldi	r22, 0x1B	; 27
 b44:	71 e0       	ldi	r23, 0x01	; 1
 b46:	f0 cf       	rjmp	.-32     	; 0xb28 <menu+0x8>

00000b48 <USART_Init>:
 b48:	90 bd       	out	0x20, r25	; 32
 b4a:	89 b9       	out	0x09, r24	; 9
 b4c:	88 e9       	ldi	r24, 0x98	; 152
 b4e:	8a b9       	out	0x0a, r24	; 10
 b50:	86 e8       	ldi	r24, 0x86	; 134
 b52:	80 bd       	out	0x20, r24	; 32
 b54:	08 95       	ret

00000b56 <USART_Transmit>:
 b56:	5d 9b       	sbis	0x0b, 5	; 11
 b58:	fe cf       	rjmp	.-4      	; 0xb56 <USART_Transmit>
 b5a:	8c b9       	out	0x0c, r24	; 12
 b5c:	08 95       	ret

00000b5e <USART_Receive>:
 b5e:	5f 9b       	sbis	0x0b, 7	; 11
 b60:	fe cf       	rjmp	.-4      	; 0xb5e <USART_Receive>
 b62:	8c b1       	in	r24, 0x0c	; 12
 b64:	08 95       	ret

00000b66 <__vector_11>:
 b66:	1f 92       	push	r1
 b68:	0f 92       	push	r0
 b6a:	0f b6       	in	r0, 0x3f	; 63
 b6c:	0f 92       	push	r0
 b6e:	11 24       	eor	r1, r1
 b70:	8f 93       	push	r24
 b72:	ef 93       	push	r30
 b74:	ff 93       	push	r31
 b76:	82 e0       	ldi	r24, 0x02	; 2
 b78:	80 93 74 01 	sts	0x0174, r24
 b7c:	5f 9b       	sbis	0x0b, 7	; 11
 b7e:	fe cf       	rjmp	.-4      	; 0xb7c <__vector_11+0x16>
 b80:	8c b1       	in	r24, 0x0c	; 12
 b82:	e0 91 78 01 	lds	r30, 0x0178
 b86:	f0 e0       	ldi	r31, 0x00	; 0
 b88:	ec 5d       	subi	r30, 0xDC	; 220
 b8a:	fe 4f       	sbci	r31, 0xFE	; 254
 b8c:	80 83       	st	Z, r24
 b8e:	e0 91 78 01 	lds	r30, 0x0178
 b92:	f0 e0       	ldi	r31, 0x00	; 0
 b94:	eb 5d       	subi	r30, 0xDB	; 219
 b96:	fe 4f       	sbci	r31, 0xFE	; 254
 b98:	10 82       	st	Z, r1
 b9a:	80 91 78 01 	lds	r24, 0x0178
 b9e:	88 23       	and	r24, r24
 ba0:	91 f0       	breq	.+36     	; 0xbc6 <__vector_11+0x60>
 ba2:	e0 91 78 01 	lds	r30, 0x0178
 ba6:	f0 e0       	ldi	r31, 0x00	; 0
 ba8:	ed 5d       	subi	r30, 0xDD	; 221
 baa:	fe 4f       	sbci	r31, 0xFE	; 254
 bac:	80 81       	ld	r24, Z
 bae:	8d 30       	cpi	r24, 0x0D	; 13
 bb0:	51 f4       	brne	.+20     	; 0xbc6 <__vector_11+0x60>
 bb2:	e0 91 78 01 	lds	r30, 0x0178
 bb6:	f0 e0       	ldi	r31, 0x00	; 0
 bb8:	ec 5d       	subi	r30, 0xDC	; 220
 bba:	fe 4f       	sbci	r31, 0xFE	; 254
 bbc:	80 81       	ld	r24, Z
 bbe:	8a 30       	cpi	r24, 0x0A	; 10
 bc0:	11 f4       	brne	.+4      	; 0xbc6 <__vector_11+0x60>
 bc2:	10 92 78 01 	sts	0x0178, r1
 bc6:	80 91 78 01 	lds	r24, 0x0178
 bca:	8f 5f       	subi	r24, 0xFF	; 255
 bcc:	80 93 78 01 	sts	0x0178, r24
 bd0:	81 e0       	ldi	r24, 0x01	; 1
 bd2:	80 93 77 01 	sts	0x0177, r24
 bd6:	ff 91       	pop	r31
 bd8:	ef 91       	pop	r30
 bda:	8f 91       	pop	r24
 bdc:	0f 90       	pop	r0
 bde:	0f be       	out	0x3f, r0	; 63
 be0:	0f 90       	pop	r0
 be2:	1f 90       	pop	r1
 be4:	18 95       	reti

00000be6 <USART_Transmit_string>:
 be6:	dc 01       	movw	r26, r24
 be8:	0d 90       	ld	r0, X+
 bea:	00 20       	and	r0, r0
 bec:	e9 f7       	brne	.-6      	; 0xbe8 <USART_Transmit_string+0x2>
 bee:	11 97       	sbiw	r26, 0x01	; 1
 bf0:	a8 1b       	sub	r26, r24
 bf2:	b9 0b       	sbc	r27, r25
 bf4:	40 e0       	ldi	r20, 0x00	; 0
 bf6:	68 ec       	ldi	r22, 0xC8	; 200
 bf8:	70 e0       	ldi	r23, 0x00	; 0
 bfa:	0f c0       	rjmp	.+30     	; 0xc1a <USART_Transmit_string+0x34>
 bfc:	e8 0f       	add	r30, r24
 bfe:	f9 1f       	adc	r31, r25
 c00:	20 81       	ld	r18, Z
 c02:	5d 9b       	sbis	0x0b, 5	; 11
 c04:	fe cf       	rjmp	.-4      	; 0xc02 <USART_Transmit_string+0x1c>
 c06:	2c b9       	out	0x0c, r18	; 12
 c08:	28 ee       	ldi	r18, 0xE8	; 232
 c0a:	33 e0       	ldi	r19, 0x03	; 3
 c0c:	fb 01       	movw	r30, r22
 c0e:	31 97       	sbiw	r30, 0x01	; 1
 c10:	f1 f7       	brne	.-4      	; 0xc0e <USART_Transmit_string+0x28>
 c12:	21 50       	subi	r18, 0x01	; 1
 c14:	30 40       	sbci	r19, 0x00	; 0
 c16:	d1 f7       	brne	.-12     	; 0xc0c <USART_Transmit_string+0x26>
 c18:	4f 5f       	subi	r20, 0xFF	; 255
 c1a:	e4 2f       	mov	r30, r20
 c1c:	f0 e0       	ldi	r31, 0x00	; 0
 c1e:	ea 17       	cp	r30, r26
 c20:	fb 07       	cpc	r31, r27
 c22:	60 f3       	brcs	.-40     	; 0xbfc <USART_Transmit_string+0x16>
 c24:	08 95       	ret

00000c26 <strcat>:
 c26:	fb 01       	movw	r30, r22
 c28:	dc 01       	movw	r26, r24
 c2a:	0d 90       	ld	r0, X+
 c2c:	00 20       	and	r0, r0
 c2e:	e9 f7       	brne	.-6      	; 0xc2a <strcat+0x4>
 c30:	11 97       	sbiw	r26, 0x01	; 1
 c32:	01 90       	ld	r0, Z+
 c34:	0d 92       	st	X+, r0
 c36:	00 20       	and	r0, r0
 c38:	e1 f7       	brne	.-8      	; 0xc32 <strcat+0xc>
 c3a:	08 95       	ret

00000c3c <strcpy>:
 c3c:	fb 01       	movw	r30, r22
 c3e:	dc 01       	movw	r26, r24
 c40:	01 90       	ld	r0, Z+
 c42:	0d 92       	st	X+, r0
 c44:	00 20       	and	r0, r0
 c46:	e1 f7       	brne	.-8      	; 0xc40 <strcpy+0x4>
 c48:	08 95       	ret

00000c4a <itoa>:
 c4a:	fb 01       	movw	r30, r22
 c4c:	9f 01       	movw	r18, r30
 c4e:	e8 94       	clt
 c50:	42 30       	cpi	r20, 0x02	; 2
 c52:	c4 f0       	brlt	.+48     	; 0xc84 <itoa+0x3a>
 c54:	45 32       	cpi	r20, 0x25	; 37
 c56:	b4 f4       	brge	.+44     	; 0xc84 <itoa+0x3a>
 c58:	4a 30       	cpi	r20, 0x0A	; 10
 c5a:	29 f4       	brne	.+10     	; 0xc66 <itoa+0x1c>
 c5c:	97 fb       	bst	r25, 7
 c5e:	1e f4       	brtc	.+6      	; 0xc66 <itoa+0x1c>
 c60:	90 95       	com	r25
 c62:	81 95       	neg	r24
 c64:	9f 4f       	sbci	r25, 0xFF	; 255
 c66:	64 2f       	mov	r22, r20
 c68:	77 27       	eor	r23, r23
 c6a:	0e 94 56 06 	call	0xcac	; 0xcac <__udivmodhi4>
 c6e:	80 5d       	subi	r24, 0xD0	; 208
 c70:	8a 33       	cpi	r24, 0x3A	; 58
 c72:	0c f0       	brlt	.+2      	; 0xc76 <itoa+0x2c>
 c74:	89 5d       	subi	r24, 0xD9	; 217
 c76:	81 93       	st	Z+, r24
 c78:	cb 01       	movw	r24, r22
 c7a:	00 97       	sbiw	r24, 0x00	; 0
 c7c:	a1 f7       	brne	.-24     	; 0xc66 <itoa+0x1c>
 c7e:	16 f4       	brtc	.+4      	; 0xc84 <itoa+0x3a>
 c80:	5d e2       	ldi	r21, 0x2D	; 45
 c82:	51 93       	st	Z+, r21
 c84:	10 82       	st	Z, r1
 c86:	c9 01       	movw	r24, r18
 c88:	0c 94 46 06 	jmp	0xc8c	; 0xc8c <strrev>

00000c8c <strrev>:
 c8c:	dc 01       	movw	r26, r24
 c8e:	fc 01       	movw	r30, r24
 c90:	67 2f       	mov	r22, r23
 c92:	71 91       	ld	r23, Z+
 c94:	77 23       	and	r23, r23
 c96:	e1 f7       	brne	.-8      	; 0xc90 <strrev+0x4>
 c98:	32 97       	sbiw	r30, 0x02	; 2
 c9a:	04 c0       	rjmp	.+8      	; 0xca4 <strrev+0x18>
 c9c:	7c 91       	ld	r23, X
 c9e:	6d 93       	st	X+, r22
 ca0:	70 83       	st	Z, r23
 ca2:	62 91       	ld	r22, -Z
 ca4:	ae 17       	cp	r26, r30
 ca6:	bf 07       	cpc	r27, r31
 ca8:	c8 f3       	brcs	.-14     	; 0xc9c <strrev+0x10>
 caa:	08 95       	ret

00000cac <__udivmodhi4>:
 cac:	aa 1b       	sub	r26, r26
 cae:	bb 1b       	sub	r27, r27
 cb0:	51 e1       	ldi	r21, 0x11	; 17
 cb2:	07 c0       	rjmp	.+14     	; 0xcc2 <__udivmodhi4_ep>

00000cb4 <__udivmodhi4_loop>:
 cb4:	aa 1f       	adc	r26, r26
 cb6:	bb 1f       	adc	r27, r27
 cb8:	a6 17       	cp	r26, r22
 cba:	b7 07       	cpc	r27, r23
 cbc:	10 f0       	brcs	.+4      	; 0xcc2 <__udivmodhi4_ep>
 cbe:	a6 1b       	sub	r26, r22
 cc0:	b7 0b       	sbc	r27, r23

00000cc2 <__udivmodhi4_ep>:
 cc2:	88 1f       	adc	r24, r24
 cc4:	99 1f       	adc	r25, r25
 cc6:	5a 95       	dec	r21
 cc8:	a9 f7       	brne	.-22     	; 0xcb4 <__udivmodhi4_loop>
 cca:	80 95       	com	r24
 ccc:	90 95       	com	r25
 cce:	bc 01       	movw	r22, r24
 cd0:	cd 01       	movw	r24, r26
 cd2:	08 95       	ret

00000cd4 <_exit>:
 cd4:	f8 94       	cli

00000cd6 <__stop_program>:
 cd6:	ff cf       	rjmp	.-2      	; 0xcd6 <__stop_program>
